target datalayout = "e-m:e-p270:32:32-p271:32:32-p272:64:64-i64:64-i128:128-f80:128-n8:16:32:64-S128"
target triple = "x86_64-pc-linux-gnu"

%struct.redisServer = type { i32, i64, ptr, ptr, ptr, i32, i32, i32, i32, i32, ptr, ptr, ptr, ptr, ptr, i32, i32, i32, i32, i64, i32, i32, i32, i32, ptr, i32, i32, [41 x i8], i32, i64, i32, i32, i32, ptr, ptr, i32, i32, i64, ptr, ptr, ptr, ptr, [2 x i32], i32, i32, i32, i32, i32, i32, [16 x ptr], i32, ptr, ptr, i32, [8 x %struct.connListener], i32, %struct.connListener, ptr, ptr, ptr, ptr, ptr, ptr, ptr, ptr, ptr, ptr, i32, ptr, i32, ptr, [3 x %struct.pause_event], [256 x i8], ptr, i64, i32, i32, [128 x i32], i32, i32, i64, i32, i32, i32, i32, i32, i64, i64, i64, i64, i64, i64, i64, i64, i64, i64, double, i64, i64, i64, i64, i64, i64, i64, i64, i64, i64, i64, i64, i64, i64, i64, i64, i64, i64, i64, i64, i64, double, i64, i64, i64, i64, i64, ptr, i64, i64, i64, %struct.malloc_stats, i64, i64, i64, i64, i64, i64, i64, i64, i64, i64, i64, i64, double, [4 x i64], i64, i64, i64, i64, [128 x i64], [128 x i64], i64, i64, [7 x %struct.anon], i64, i64, i64, i64, i64, i64, [4 x %struct.durationStats], i32, i32, i32, i32, i32, i32, i32, i32, i32, i32, i32, i32, i64, i32, i32, i32, i32, i64, i64, i32, i32, i32, i32, i32, ptr, [3 x %struct.clientBufferLimitsConfig], i32, i32, i32, ptr, i32, i32, i32, i32, i32, i32, ptr, ptr, i32, i32, i64, i64, i64, i64, i64, i32, i32, ptr, i32, i32, i64, i64, i64, i64, i64, i32, i32, i64, i32, i32, i32, i32, i32, i32, i32, i32, ptr, i32, i64, i64, i64, i64, i32, ptr, i32, ptr, i32, i32, i32, i64, i64, i64, i64, i32, i32, i32, i32, i32, i32, ptr, i32, i32, ptr, i32, i32, i32, [2 x i32], i32, %struct.redisOpArray, i32, ptr, i32, ptr, i32, i32, i32, i32, i32, i32, i32, [41 x i8], [41 x i8], i64, i64, i64, i64, i32, i32, ptr, i64, i64, %struct.replDataBuf, i64, i64, i32, i32, i32, i32, i32, i32, i32, i32, i32, i64, ptr, i64, ptr, ptr, ptr, i32, i32, ptr, ptr, i32, i32, i32, i64, i64, i64, i64, ptr, ptr, i32, ptr, i64, i32, i32, i32, i64, i32, i32, i32, i32, ptr, i32, i32, [41 x i8], i64, i32, ptr, i32, i32, i64, i64, i32, i32, i32, i32, i32, i64, [3 x i32], i32, i32, i32, [10 x i32], ptr, ptr, i32, i64, ptr, ptr, i32, i32, i32, i32, i64, i64, i64, i64, i64, i64, i64, i64, i64, i64, i32, i32, i64, i64, i32, i64, i64, i64, i64, i64, ptr, ptr, i32, ptr, i32, i32, i32, i32, i64, i64, ptr, ptr, i32, i32, i32, i32, i32, ptr, ptr, ptr, i32, i32, i32, i32, i32, i32, i32, i64, i32, i32, i64, i32, i32, i32, i32, i32, i32, i32, i64, ptr, ptr, i64, ptr, i32, %struct.aclInfo, i32, i64, i32, i32, i32, %struct.redisTLSContextConfig, ptr, ptr, ptr, ptr, ptr, i64, i32, ptr, i32, i32, i32, i64, i32, ptr }
%struct.connListener = type { [16 x i32], i32, ptr, i32, i32, ptr, ptr }
%struct.pause_event = type { i32, i64 }
%struct.malloc_stats = type { i64, i64, i64, i64, i64, i64, i64, i64, i64, i64, i64 }
%struct.anon = type { i64, i64, [16 x i64], i32 }
%struct.durationStats = type { i64, i64, i64 }
%struct.clientBufferLimitsConfig = type { i64, i64, i64 }
%struct.redisOpArray = type { ptr, i32, i32 }
%struct.replDataBuf = type { ptr, i64, i64, i64, i64 }
%struct.aclInfo = type { i64, i64, i64, i64 }
%struct.redisTLSContextConfig = type { ptr, ptr, ptr, ptr, ptr, ptr, ptr, ptr, ptr, ptr, ptr, ptr, i32, i32, i32, i32 }
%struct.stat = type { i64, i64, i64, i32, i32, i32, i32, i64, i64, i64, i64, %struct.timespec, %struct.timespec, %struct.timespec, [3 x i64] }
%struct.timespec = type { i64, i64 }

@server = external global %struct.redisServer, align 8
@.str.165 = private unnamed_addr constant [50 x i8] c"Unable to obtain the AOF file %s length. stat: %s\00", align 1
@.str.166 = private unnamed_addr constant [10 x i8] c"aof-fstat\00", align 1

; Function Attrs: nounwind uwtable
define dso_local i64 @getAppendOnlyFileSize(ptr noundef %0, ptr noundef %1) #0 {
  %3 = alloca ptr, align 8
  %4 = alloca ptr, align 8
  %5 = alloca %struct.stat, align 8
  %6 = alloca i64, align 8
  %7 = alloca i64, align 8
  %8 = alloca ptr, align 8
  store ptr %0, ptr %3, align 8, !tbaa !18
  store ptr %1, ptr %4, align 8, !tbaa !88
  call void @llvm.lifetime.start.p0(i64 144, ptr %5) #12
  call void @llvm.lifetime.start.p0(i64 8, ptr %6) #12
  call void @llvm.lifetime.start.p0(i64 8, ptr %7) #12
  call void @llvm.lifetime.start.p0(i64 8, ptr %8) #12
  %9 = load ptr, ptr getelementptr inbounds nuw (%struct.redisServer, ptr @server, i32 0, i32 196), align 8, !tbaa !66
  %10 = load ptr, ptr %3, align 8, !tbaa !18
  %11 = call ptr @makePath(ptr noundef %9, ptr noundef %10)
  store ptr %11, ptr %8, align 8, !tbaa !18
  %12 = load i64, ptr getelementptr inbounds nuw (%struct.redisServer, ptr @server, i32 0, i32 412), align 8, !tbaa !90
  %13 = icmp ne i64 %12, 0
  br i1 %13, label %14, label %16

14:                                               ; preds = %2
  %15 = call i64 @mstime()
  store i64 %15, ptr %7, align 8, !tbaa !68
  br label %17

16:                                               ; preds = %2
  store i64 0, ptr %7, align 8, !tbaa !68
  br label %17

17:                                               ; preds = %16, %14
  %18 = load ptr, ptr %8, align 8, !tbaa !18
  %19 = call i32 @stat64(ptr noundef %18, ptr noundef %5) #12
  %20 = icmp eq i32 %19, -1
  br i1 %20, label %21, label %42

21:                                               ; preds = %17
  %22 = load ptr, ptr %4, align 8, !tbaa !88
  %23 = icmp ne ptr %22, null
  br i1 %23, label %24, label %30

24:                                               ; preds = %21
  %25 = call ptr @__errno_location() #15
  %26 = load i32, ptr %25, align 4, !tbaa !22
  %27 = icmp eq i32 %26, 2
  %28 = select i1 %27, i32 1, i32 3
  %29 = load ptr, ptr %4, align 8, !tbaa !88
  store i32 %28, ptr %29, align 4, !tbaa !22
  br label %30

30:                                               ; preds = %24, %21
  br label %31

31:                                               ; preds = %30
  %32 = load i32, ptr getelementptr inbounds nuw (%struct.redisServer, ptr @server, i32 0, i32 159), align 8, !tbaa !67
  %33 = icmp slt i32 3, %32
  br i1 %33, label %34, label %35

34:                                               ; preds = %31
  br label %41

35:                                               ; preds = %31
  %36 = load ptr, ptr %3, align 8, !tbaa !18
  %37 = call ptr @__errno_location() #15
  %38 = load i32, ptr %37, align 4, !tbaa !22
  %39 = call ptr @strerror(i32 noundef %38) #12
  call void (i32, ptr, ...) @_serverLog(i32 noundef 3, ptr noundef @.str.165, ptr noundef %36, ptr noundef %39)
  br label %40

40:                                               ; preds = %35
  br label %41

41:                                               ; preds = %40, %34
  store i64 0, ptr %6, align 8, !tbaa !23
  br label %50

42:                                               ; preds = %17
  %43 = load ptr, ptr %4, align 8, !tbaa !88
  %44 = icmp ne ptr %43, null
  br i1 %44, label %45, label %47

45:                                               ; preds = %42
  %46 = load ptr, ptr %4, align 8, !tbaa !88
  store i32 0, ptr %46, align 4, !tbaa !22
  br label %47

47:                                               ; preds = %45, %42
  %48 = getelementptr inbounds nuw %struct.stat, ptr %5, i32 0, i32 8
  %49 = load i64, ptr %48, align 8, !tbaa !91
  store i64 %49, ptr %6, align 8, !tbaa !23
  br label %50

50:                                               ; preds = %47, %41
  %51 = load i64, ptr getelementptr inbounds nuw (%struct.redisServer, ptr @server, i32 0, i32 412), align 8, !tbaa !90
  %52 = icmp ne i64 %51, 0
  br i1 %52, label %53, label %57

53:                                               ; preds = %50
  %54 = call i64 @mstime()
  %55 = load i64, ptr %7, align 8, !tbaa !68
  %56 = sub nsw i64 %54, %55
  store i64 %56, ptr %7, align 8, !tbaa !68
  br label %57

57:                                               ; preds = %53, %50
  %58 = load i64, ptr getelementptr inbounds nuw (%struct.redisServer, ptr @server, i32 0, i32 412), align 8, !tbaa !90
  %59 = icmp ne i64 %58, 0
  br i1 %59, label %60, label %66

60:                                               ; preds = %57
  %61 = load i64, ptr %7, align 8, !tbaa !68
  %62 = load i64, ptr getelementptr inbounds nuw (%struct.redisServer, ptr @server, i32 0, i32 412), align 8, !tbaa !90
  %63 = icmp sge i64 %61, %62
  br i1 %63, label %64, label %66

64:                                               ; preds = %60
  %65 = load i64, ptr %7, align 8, !tbaa !68
  call void @latencyAddSample(ptr noundef @.str.166, i64 noundef %65)
  br label %66

66:                                               ; preds = %64, %60, %57
  %67 = load ptr, ptr %8, align 8, !tbaa !18
  call void @sdsfree(ptr noundef %67)
  %68 = load i64, ptr %6, align 8, !tbaa !23
  call void @llvm.lifetime.end.p0(i64 8, ptr %8) #12
  call void @llvm.lifetime.end.p0(i64 8, ptr %7) #12
  call void @llvm.lifetime.end.p0(i64 8, ptr %6) #12
  call void @llvm.lifetime.end.p0(i64 144, ptr %5) #12
  ret i64 %68
}