; Function Attrs: nounwind uwtable
define dso_local i64 @getAppendOnlyFileSize(ptr noundef %0, ptr noundef writeonly captures(address_is_null) %1) local_unnamed_addr #0 {
  %3 = alloca %struct.stat, align 8
  call void @llvm.lifetime.start.p0(i64 144, ptr nonnull %3) #20
  %4 = load ptr, ptr getelementptr inbounds nuw (i8, ptr @server, i64 6536), align 8, !tbaa !64
  %5 = tail call ptr @makePath(ptr noundef %4, ptr noundef %0) #20
  %6 = load i64, ptr getelementptr inbounds nuw (i8, ptr @server, i64 8064), align 8, !tbaa !83
  %.not = icmp eq i64 %6, 0
  br i1 %.not, label %9, label %7

7:                                                ; preds = %2
  %8 = tail call i64 @mstime() #20
  br label %9

9:                                                ; preds = %2, %7
  %.011 = phi i64 [ %8, %7 ], [ 0, %2 ]
  %10 = call i32 @stat64(ptr noundef %5, ptr noundef nonnull %3) #20
  %11 = icmp eq i32 %10, -1
  %.not16 = icmp eq ptr %1, null
  br i1 %11, label %12, label %25

12:                                               ; preds = %9
  br i1 %.not16, label %18, label %13

13:                                               ; preds = %12
  %14 = tail call ptr @__errno_location() #22
  %15 = load i32, ptr %14, align 4, !tbaa !21
  %16 = icmp eq i32 %15, 2
  %17 = select i1 %16, i32 1, i32 3
  store i32 %17, ptr %1, align 4, !tbaa !21
  br label %18

18:                                               ; preds = %12, %13
  %19 = load i32, ptr getelementptr inbounds nuw (i8, ptr @server, i64 6288), align 8, !tbaa !65
  %20 = icmp sgt i32 %19, 3
  br i1 %20, label %30, label %21

21:                                               ; preds = %18
  %22 = tail call ptr @__errno_location() #22
  %23 = load i32, ptr %22, align 4, !tbaa !21
  %24 = tail call ptr @strerror(i32 noundef %23) #20
  tail call void (i32, ptr, ...) @_serverLog(i32 noundef 3, ptr noundef nonnull @.str.165, ptr noundef %0, ptr noundef %24) #20
  br label %30

25:                                               ; preds = %9
  br i1 %.not16, label %27, label %26

26:                                               ; preds = %25
  store i32 0, ptr %1, align 4, !tbaa !21
  br label %27

27:                                               ; preds = %26, %25
  %28 = getelementptr inbounds nuw i8, ptr %3, i64 48
  %29 = load i64, ptr %28, align 8, !tbaa !84
  br label %30

30:                                               ; preds = %21, %18, %27
  %.0 = phi i64 [ %29, %27 ], [ 0, %18 ], [ 0, %21 ]
  %31 = load i64, ptr getelementptr inbounds nuw (i8, ptr @server, i64 8064), align 8, !tbaa !83
  %.not17 = icmp eq i64 %31, 0
  br i1 %.not17, label %.thread, label %32

32:                                               ; preds = %30
  %33 = tail call i64 @mstime() #20
  %34 = sub nsw i64 %33, %.011
  %.pre = load i64, ptr getelementptr inbounds nuw (i8, ptr @server, i64 8064), align 8, !tbaa !83
  %.not18 = icmp eq i64 %.pre, 0
  %.not19 = icmp slt i64 %34, %.pre
  %or.cond = select i1 %.not18, i1 true, i1 %.not19
  br i1 %or.cond, label %.thread, label %35

35:                                               ; preds = %32
  tail call void @latencyAddSample(ptr noundef nonnull @.str.166, i64 noundef %34) #20
  br label %.thread

.thread:                                          ; preds = %30, %35, %32
  tail call void @sdsfree(ptr noundef %5) #20
  call void @llvm.lifetime.end.p0(i64 144, ptr nonnull %3) #20
  ret i64 %.0
}